
processed_files/function_object.o:     file format elf64-x86-64


Disassembly of section .text:

0000000000000000 <add>:
   0:	f3 0f 1e fa          	endbr64 
   4:	55                   	push   %rbp
   5:	48 89 e5             	mov    %rsp,%rbp
   8:	f3 0f 11 45 ec       	movss  %xmm0,-0x14(%rbp)
   d:	f3 0f 11 4d e8       	movss  %xmm1,-0x18(%rbp)
  12:	f3 0f 10 45 ec       	movss  -0x14(%rbp),%xmm0
  17:	f3 0f 58 45 e8       	addss  -0x18(%rbp),%xmm0
  1c:	f3 0f 11 45 fc       	movss  %xmm0,-0x4(%rbp)
  21:	f3 0f 10 45 fc       	movss  -0x4(%rbp),%xmm0
  26:	5d                   	pop    %rbp
  27:	c3                   	ret    

0000000000000028 <add_and_multiply>:
  28:	f3 0f 1e fa          	endbr64 
  2c:	55                   	push   %rbp
  2d:	48 89 e5             	mov    %rsp,%rbp
  30:	48 83 ec 18          	sub    $0x18,%rsp
  34:	f3 0f 11 45 ec       	movss  %xmm0,-0x14(%rbp)
  39:	f3 0f 11 4d e8       	movss  %xmm1,-0x18(%rbp)
  3e:	f3 0f 10 45 e8       	movss  -0x18(%rbp),%xmm0
  43:	8b 45 ec             	mov    -0x14(%rbp),%eax
  46:	0f 28 c8             	movaps %xmm0,%xmm1
  49:	66 0f 6e c0          	movd   %eax,%xmm0
  4d:	e8 00 00 00 00       	call   52 <add_and_multiply+0x2a>
  52:	66 0f 7e c0          	movd   %xmm0,%eax
  56:	89 45 fc             	mov    %eax,-0x4(%rbp)
  59:	f3 0f 10 4d fc       	movss  -0x4(%rbp),%xmm1
  5e:	f3 0f 10 05 00 00 00 	movss  0x0(%rip),%xmm0        # 66 <add_and_multiply+0x3e>
  65:	00 
  66:	f3 0f 59 c1          	mulss  %xmm1,%xmm0
  6a:	f3 0f 11 45 fc       	movss  %xmm0,-0x4(%rbp)
  6f:	f3 0f 10 45 fc       	movss  -0x4(%rbp),%xmm0
  74:	c9                   	leave  
  75:	c3                   	ret    
